target datalayout = "e-m:e-p270:32:32-p271:32:32-p272:64:64-i64:64-i128:128-f80:128-n8:16:32:64-S128"
target triple = "x86_64-pc-linux-gnu"

@.str.39 = private unnamed_addr constant [5 x i8] c".mjs\00", align 1

; Function Attrs: nounwind uwtable
define internal i32 @eval_file(ptr noundef %0, ptr noundef %1, i32 noundef %2) #0 {
  %4 = alloca ptr, align 8
  %5 = alloca ptr, align 8
  %6 = alloca i32, align 4
  %7 = alloca ptr, align 8
  %8 = alloca i32, align 4
  %9 = alloca i32, align 4
  %10 = alloca i64, align 8
  store ptr %0, ptr %4, align 8
  store ptr %1, ptr %5, align 8
  store i32 %2, ptr %6, align 4
  %11 = load ptr, ptr %4, align 8
  %12 = load ptr, ptr %5, align 8
  %13 = call ptr @js_load_file(ptr noundef %11, ptr noundef %10, ptr noundef %12)
  store ptr %13, ptr %7, align 8
  %14 = load ptr, ptr %7, align 8
  %15 = icmp ne ptr %14, null
  br i1 %15, label %18, label %16

16:                                               ; preds = %3
  %17 = load ptr, ptr %5, align 8
  call void @perror(ptr noundef %17)
  call void @exit(i32 noundef 1) #10
  unreachable

18:                                               ; preds = %3
  %19 = load i32, ptr %6, align 4
  %20 = icmp slt i32 %19, 0
  br i1 %20, label %21, label %33

21:                                               ; preds = %18
  %22 = load ptr, ptr %5, align 8
  %23 = call i32 @has_suffix(ptr noundef %22, ptr noundef @.str.39)
  %24 = icmp ne i32 %23, 0
  br i1 %24, label %30, label %25

25:                                               ; preds = %21
  %26 = load ptr, ptr %7, align 8
  %27 = load i64, ptr %10, align 8
  %28 = call i32 @JS_DetectModule(ptr noundef %26, i64 noundef %27)
  %29 = icmp ne i32 %28, 0
  br label %30

30:                                               ; preds = %25, %21
  %31 = phi i1 [ true, %21 ], [ %29, %25 ]
  %32 = zext i1 %31 to i32
  store i32 %32, ptr %6, align 4
  br label %33

33:                                               ; preds = %30, %18
  %34 = load i32, ptr %6, align 4
  %35 = icmp ne i32 %34, 0
  br i1 %35, label %36, label %37

36:                                               ; preds = %33
  store i32 1, ptr %9, align 4
  br label %38

37:                                               ; preds = %33
  store i32 0, ptr %9, align 4
  br label %38

38:                                               ; preds = %37, %36
  %39 = load ptr, ptr %4, align 8
  %40 = load ptr, ptr %7, align 8
  %41 = load i64, ptr %10, align 8
  %42 = trunc i64 %41 to i32
  %43 = load ptr, ptr %5, align 8
  %44 = load i32, ptr %9, align 4
  %45 = call i32 @eval_buf(ptr noundef %39, ptr noundef %40, i32 noundef %42, ptr noundef %43, i32 noundef %44)
  store i32 %45, ptr %8, align 4
  %46 = load ptr, ptr %4, align 8
  %47 = load ptr, ptr %7, align 8
  call void @js_free(ptr noundef %46, ptr noundef %47)
  %48 = load i32, ptr %8, align 4
  ret i32 %48
}