; Function Attrs: nounwind uwtable
define internal fastcc noundef i32 @eval_file(ptr noundef %0, ptr noundef %1, i32 noundef %2) unnamed_addr #3 {
  %4 = alloca i64, align 8
  %5 = call ptr @js_load_file(ptr noundef %0, ptr noundef nonnull %4, ptr noundef %1) #16
  %.not = icmp eq ptr %5, null
  br i1 %.not, label %6, label %7

6:                                                ; preds = %3
  call void @perror(ptr noundef %1) #15
  call void @exit(i32 noundef 1) #13
  unreachable

7:                                                ; preds = %3
  %8 = icmp slt i32 %2, 0
  br i1 %8, label %9, label %16

9:                                                ; preds = %7
  %10 = call i32 @has_suffix(ptr noundef %1, ptr noundef nonnull @.str.39) #16
  %.not17 = icmp eq i32 %10, 0
  br i1 %.not17, label %11, label %.thread

11:                                               ; preds = %9
  %12 = load i64, ptr %4, align 8
  %13 = call i32 @JS_DetectModule(ptr noundef nonnull %5, i64 noundef %12) #16
  %.fr22 = freeze i32 %13
  %14 = icmp ne i32 %.fr22, 0
  %15 = zext i1 %14 to i32
  br label %16

16:                                               ; preds = %11, %7
  %.014 = phi i32 [ %2, %7 ], [ %15, %11 ]
  %.not18 = icmp ne i32 %.014, 0
  %spec.select = zext i1 %.not18 to i32
  br label %.thread

.thread:                                          ; preds = %16, %9
  %17 = phi i32 [ 1, %9 ], [ %spec.select, %16 ]
  %18 = load i64, ptr %4, align 8
  %19 = trunc i64 %18 to i32
  %20 = call fastcc i32 @eval_buf(ptr noundef %0, ptr noundef nonnull %5, i32 noundef %19, ptr noundef %1, i32 noundef %17), !range !10
  call void @js_free(ptr noundef %0, ptr noundef nonnull %5) #16
  ret i32 %20
}